target datalayout = "e-m:e-p270:32:32-p271:32:32-p272:64:64-i64:64-i128:128-f80:128-n8:16:32:64-S128"
target triple = "x86_64-pc-linux-gnu"

%struct.ossl_quic_frame_ack_st = type { ptr, i64, %struct.OSSL_TIME, i64, i64, i64, i8 }
%struct.OSSL_TIME = type { i64 }
%struct.ossl_quic_ack_range_st = type { i64, i64 }

; Function Attrs: nounwind uwtable
define i32 @ossl_quic_frame_ack_contains_pn(ptr noundef %0, i64 noundef %1) #0 {
  %3 = alloca i32, align 4
  %4 = alloca ptr, align 8
  %5 = alloca i64, align 8
  %6 = alloca i64, align 8
  %7 = alloca i32, align 4
  store ptr %0, ptr %4, align 8, !tbaa !3
  store i64 %1, ptr %5, align 8, !tbaa !8
  call void @llvm.lifetime.start.p0(i64 8, ptr %6) #7
  store i64 0, ptr %6, align 8, !tbaa !8
  br label %8

8:                                                ; preds = %36, %2
  %9 = load i64, ptr %6, align 8, !tbaa !8
  %10 = load ptr, ptr %4, align 8, !tbaa !3
  %11 = getelementptr inbounds nuw %struct.ossl_quic_frame_ack_st, ptr %10, i32 0, i32 1
  %12 = load i64, ptr %11, align 8, !tbaa !10
  %13 = icmp ult i64 %9, %12
  br i1 %13, label %14, label %39

14:                                               ; preds = %8
  %15 = load i64, ptr %5, align 8, !tbaa !8
  %16 = load ptr, ptr %4, align 8, !tbaa !3
  %17 = getelementptr inbounds nuw %struct.ossl_quic_frame_ack_st, ptr %16, i32 0, i32 0
  %18 = load ptr, ptr %17, align 8, !tbaa !15
  %19 = load i64, ptr %6, align 8, !tbaa !8
  %20 = getelementptr inbounds nuw %struct.ossl_quic_ack_range_st, ptr %18, i64 %19
  %21 = getelementptr inbounds nuw %struct.ossl_quic_ack_range_st, ptr %20, i32 0, i32 0
  %22 = load i64, ptr %21, align 8, !tbaa !16
  %23 = icmp uge i64 %15, %22
  br i1 %23, label %24, label %35

24:                                               ; preds = %14
  %25 = load i64, ptr %5, align 8, !tbaa !8
  %26 = load ptr, ptr %4, align 8, !tbaa !3
  %27 = getelementptr inbounds nuw %struct.ossl_quic_frame_ack_st, ptr %26, i32 0, i32 0
  %28 = load ptr, ptr %27, align 8, !tbaa !15
  %29 = load i64, ptr %6, align 8, !tbaa !8
  %30 = getelementptr inbounds nuw %struct.ossl_quic_ack_range_st, ptr %28, i64 %29
  %31 = getelementptr inbounds nuw %struct.ossl_quic_ack_range_st, ptr %30, i32 0, i32 1
  %32 = load i64, ptr %31, align 8, !tbaa !18
  %33 = icmp ule i64 %25, %32
  br i1 %33, label %34, label %35

34:                                               ; preds = %24
  store i32 1, ptr %3, align 4
  store i32 1, ptr %7, align 4
  br label %40

35:                                               ; preds = %24, %14
  br label %36

36:                                               ; preds = %35
  %37 = load i64, ptr %6, align 8, !tbaa !8
  %38 = add i64 %37, 1
  store i64 %38, ptr %6, align 8, !tbaa !8
  br label %8, !llvm.loop !19

39:                                               ; preds = %8
  store i32 0, ptr %3, align 4
  store i32 1, ptr %7, align 4
  br label %40

40:                                               ; preds = %39, %34
  call void @llvm.lifetime.end.p0(i64 8, ptr %6) #7
  %41 = load i32, ptr %3, align 4
  ret i32 %41
}