; Function Attrs: nofree norecurse nosync nounwind memory(read, inaccessiblemem: none) uwtable
define range(i32 0, 2) i32 @ossl_quic_frame_ack_contains_pn(ptr noundef readonly captures(none) %0, i64 noundef %1) local_unnamed_addr #0 {
  %3 = getelementptr inbounds nuw i8, ptr %0, i64 8
  %4 = load i64, ptr %3, align 8, !tbaa !3
  %.not15 = icmp eq i64 %4, 0
  br i1 %.not15, label %._crit_edge, label %.lr.ph

.lr.ph:                                           ; preds = %2
  %5 = load ptr, ptr %0, align 8, !tbaa !12
  br label %6

6:                                                ; preds = %.lr.ph, %12
  %.012 = phi i64 [ 0, %.lr.ph ], [ %13, %12 ]
  %7 = getelementptr inbounds nuw %struct.ossl_quic_ack_range_st, ptr %5, i64 %.012
  %8 = load i64, ptr %7, align 8, !tbaa !13
  %.not = icmp ult i64 %1, %8
  br i1 %.not, label %12, label %9

9:                                                ; preds = %6
  %10 = getelementptr inbounds nuw i8, ptr %7, i64 8
  %11 = load i64, ptr %10, align 8, !tbaa !15
  %.not11 = icmp ugt i64 %1, %11
  br i1 %.not11, label %12, label %._crit_edge

12:                                               ; preds = %6, %9
  %13 = add nuw i64 %.012, 1
  %exitcond.not = icmp eq i64 %13, %4
  br i1 %exitcond.not, label %._crit_edge, label %6, !llvm.loop !16

._crit_edge:                                      ; preds = %9, %12, %2
  %.09 = phi i32 [ 0, %2 ], [ 0, %12 ], [ 1, %9 ]
  ret i32 %.09
}